; Function Attrs: nounwind uwtable
define dso_local noundef ptr @generate_new_exec_param(ptr noundef readonly captures(none) %0, i32 noundef %1, i32 noundef %2, i32 noundef %3) local_unnamed_addr #0 {
  %5 = tail call noundef ptr @palloc0(i64 noundef 28) #4
  store i32 8, ptr %5, align 4
  %6 = getelementptr inbounds nuw i8, ptr %5, i64 4
  store i32 1, ptr %6, align 4
  %7 = getelementptr inbounds nuw i8, ptr %0, i64 16
  %8 = load ptr, ptr %7, align 8
  %9 = getelementptr inbounds nuw i8, ptr %8, i64 128
  %10 = load ptr, ptr %9, align 8
  %.not.i = icmp eq ptr %10, null
  br i1 %.not.i, label %list_length.exit, label %11

11:                                               ; preds = %4
  %12 = getelementptr inbounds nuw i8, ptr %10, i64 4
  %13 = load i32, ptr %12, align 4
  br label %list_length.exit

list_length.exit:                                 ; preds = %4, %11
  %14 = phi i32 [ %13, %11 ], [ 0, %4 ]
  %15 = getelementptr inbounds nuw i8, ptr %5, i64 8
  store i32 %14, ptr %15, align 4
  %16 = load ptr, ptr %7, align 8
  %17 = getelementptr inbounds nuw i8, ptr %16, i64 128
  %18 = load ptr, ptr %17, align 8
  %19 = tail call ptr @lappend_oid(ptr noundef %18, i32 noundef %1) #4
  %20 = load ptr, ptr %7, align 8
  %21 = getelementptr inbounds nuw i8, ptr %20, i64 128
  store ptr %19, ptr %21, align 8
  %22 = getelementptr inbounds nuw i8, ptr %5, i64 12
  store i32 %1, ptr %22, align 4
  %23 = getelementptr inbounds nuw i8, ptr %5, i64 16
  store i32 %2, ptr %23, align 4
  %24 = getelementptr inbounds nuw i8, ptr %5, i64 20
  store i32 %3, ptr %24, align 4
  %25 = getelementptr inbounds nuw i8, ptr %5, i64 24
  store i32 -1, ptr %25, align 4
  ret ptr %5
}